; Function Attrs: nounwind uwtable
define internal fastcc range(i32 1, 3) i32 @exec_command_gset(ptr noundef %0, i1 noundef zeroext %1) unnamed_addr #0 {
  %3 = tail call ptr @psql_scan_slash_option(ptr noundef %0, i32 noundef 0, ptr noundef null, i1 noundef zeroext false) #16
  %.not = icmp eq ptr %3, null
  br i1 %1, label %4, label %8

4:                                                ; preds = %2
  br i1 %.not, label %5, label %7

5:                                                ; preds = %4
  %6 = tail call ptr @pg_strdup(ptr noundef nonnull @.str.233) #16
  br label %7

7:                                                ; preds = %4, %5
  %storemerge = phi ptr [ %6, %5 ], [ %3, %4 ]
  store ptr %storemerge, ptr getelementptr inbounds nuw (i8, ptr @pset, i64 232), align 8
  br label %ignore_slash_options.exit

8:                                                ; preds = %2
  br i1 %.not, label %ignore_slash_options.exit, label %.lr.ph.i

.lr.ph.i:                                         ; preds = %8, %.lr.ph.i
  %9 = phi ptr [ %10, %.lr.ph.i ], [ %3, %8 ]
  tail call void @free(ptr noundef nonnull %9) #16
  %10 = tail call ptr @psql_scan_slash_option(ptr noundef %0, i32 noundef 0, ptr noundef null, i1 noundef zeroext false) #16
  %.not.i = icmp eq ptr %10, null
  br i1 %.not.i, label %ignore_slash_options.exit, label %.lr.ph.i, !llvm.loop !10

ignore_slash_options.exit:                        ; preds = %.lr.ph.i, %8, %7
  %.0 = phi i32 [ 1, %7 ], [ 2, %8 ], [ 2, %.lr.ph.i ]
  ret i32 %.0
}